target datalayout = "e-m:e-p270:32:32-p271:32:32-p272:64:64-i64:64-i128:128-f80:128-n8:16:32:64-S128"
target triple = "x86_64-pc-linux-gnu"

; Function Attrs: mustprogress uwtable
define noundef i32 @_ZN11CommandData11GetExclAttrEPKwRb(ptr noundef nonnull align 8 dereferenceable(100904) %0, ptr noundef %1, ptr noundef nonnull align 1 dereferenceable(1) %2) #0 align 2 {
  %4 = alloca i32, align 4
  %5 = alloca ptr, align 8
  %6 = alloca ptr, align 8
  %7 = alloca ptr, align 8
  %8 = alloca i32, align 4
  store ptr %0, ptr %5, align 8
  store ptr %1, ptr %6, align 8
  store ptr %2, ptr %7, align 8
  %9 = load ptr, ptr %6, align 8
  %10 = load i32, ptr %9, align 4
  %11 = call noundef zeroext i1 @_Z7IsDigiti(i32 noundef %10)
  br i1 %11, label %12, label %16

12:                                               ; preds = %3
  %13 = load ptr, ptr %6, align 8
  %14 = call i64 @wcstol(ptr noundef %13, ptr noundef null, i32 noundef 0) #11
  %15 = trunc i64 %14 to i32
  store i32 %15, ptr %4, align 4
  br label %35

16:                                               ; preds = %3
  store i32 0, ptr %8, align 4
  br label %17

17:                                               ; preds = %30, %16
  %18 = load ptr, ptr %6, align 8
  %19 = load i32, ptr %18, align 4
  %20 = icmp ne i32 %19, 0
  br i1 %20, label %21, label %33

21:                                               ; preds = %17
  %22 = load ptr, ptr %6, align 8
  %23 = load i32, ptr %22, align 4
  %24 = call noundef i32 @_Z8toupperwi(i32 noundef %23)
  switch i32 %24, label %30 [
    i32 68, label %25
    i32 86, label %27
  ]

25:                                               ; preds = %21
  %26 = load ptr, ptr %7, align 8
  store i8 1, ptr %26, align 1
  br label %30

27:                                               ; preds = %21
  %28 = load i32, ptr %8, align 4
  %29 = or i32 %28, 8192
  store i32 %29, ptr %8, align 4
  br label %30

30:                                               ; preds = %27, %25, %21
  %31 = load ptr, ptr %6, align 8
  %32 = getelementptr inbounds i32, ptr %31, i32 1
  store ptr %32, ptr %6, align 8
  br label %17, !llvm.loop !21

33:                                               ; preds = %17
  %34 = load i32, ptr %8, align 4
  store i32 %34, ptr %4, align 4
  br label %35

35:                                               ; preds = %33, %12
  %36 = load i32, ptr %4, align 4
  ret i32 %36
}