; Function Attrs: mustprogress uwtable
define noundef i32 @_ZN11CommandData11GetExclAttrEPKwRb(ptr nonnull readnone align 8 captures(none) %0, ptr noundef %1, ptr noundef nonnull writeonly align 1 captures(none) dereferenceable(1) %2) local_unnamed_addr #0 align 2 {
  %4 = load i32, ptr %1, align 4
  %5 = tail call noundef zeroext i1 @_Z7IsDigiti(i32 noundef %4)
  br i1 %5, label %7, label %.preheader

.preheader:                                       ; preds = %3
  %6 = load i32, ptr %1, align 4
  %.not11 = icmp eq i32 %6, 0
  br i1 %.not11, label %.loopexit, label %.lr.ph

7:                                                ; preds = %3
  %8 = tail call i64 @wcstol(ptr noundef nonnull %1, ptr noundef null, i32 noundef 0) #18
  %9 = trunc i64 %8 to i32
  br label %.loopexit

.lr.ph:                                           ; preds = %.preheader, %15
  %10 = phi i32 [ %17, %15 ], [ %6, %.preheader ]
  %.013 = phi i32 [ %.1, %15 ], [ 0, %.preheader ]
  %.0912 = phi ptr [ %16, %15 ], [ %1, %.preheader ]
  %11 = tail call noundef i32 @_Z8toupperwi(i32 noundef %10)
  switch i32 %11, label %15 [
    i32 68, label %12
    i32 86, label %13
  ]

12:                                               ; preds = %.lr.ph
  store i8 1, ptr %2, align 1
  br label %15

13:                                               ; preds = %.lr.ph
  %14 = or i32 %.013, 8192
  br label %15

15:                                               ; preds = %13, %12, %.lr.ph
  %.1 = phi i32 [ %.013, %.lr.ph ], [ %14, %13 ], [ %.013, %12 ]
  %16 = getelementptr inbounds nuw i8, ptr %.0912, i64 4
  %17 = load i32, ptr %16, align 4
  %.not = icmp eq i32 %17, 0
  br i1 %.not, label %.loopexit, label %.lr.ph, !llvm.loop !22

.loopexit:                                        ; preds = %15, %.preheader, %7
  %.08 = phi i32 [ %9, %7 ], [ 0, %.preheader ], [ %.1, %15 ]
  ret i32 %.08
}